target datalayout = "e-m:e-p270:32:32-p271:32:32-p272:64:64-i64:64-i128:128-f80:128-n8:16:32:64-S128"
target triple = "x86_64-pc-linux-gnu"

%struct.Animal = type { ptr }
%"class.std::__cxx11::basic_string" = type { %"struct.std::__cxx11::basic_string<char>::_Alloc_hider", i64, %union.anon.330 }
%"struct.std::__cxx11::basic_string<char>::_Alloc_hider" = type { ptr }
%union.anon.330 = type { i64, [8 x i8] }
%"class.std::allocator.327" = type { i8 }
%struct.Cat = type { %struct.Animal, %"class.std::__cxx11::basic_string" }

@_ZTV6Animal = linkonce_odr hidden unnamed_addr constant { [7 x ptr] } { [7 x ptr] [ptr null, ptr @_ZTI6Animal, ptr @_ZN6AnimalD2Ev, ptr @_ZN6AnimalD0Ev, ptr @_ZNK6Animal4nameB5cxx11Ev, ptr @__cxa_pure_virtual, ptr @_ZN6Animal8void_retEv] }, comdat, align 8

; Function Attrs: mustprogress nounwind optsize uwtable
define linkonce_odr void @_ZNSt15__new_allocatorIcEC2ERKS0_(ptr noundef nonnull align 1 dereferenceable(1) %0, ptr noundef nonnull align 1 dereferenceable(1) %1) unnamed_addr #1 comdat align 2 {
  %3 = alloca ptr, align 8
  %4 = alloca ptr, align 8
  store ptr %0, ptr %3, align 8, !tbaa !651
  store ptr %1, ptr %4, align 8, !tbaa !651
  ret void
}

; Function Attrs: mustprogress nounwind optsize uwtable
define available_externally void @_ZNSaIcEC2ERKS_(ptr noundef nonnull align 1 dereferenceable(1) %0, ptr noundef nonnull align 1 dereferenceable(1) %1) unnamed_addr #1 align 2 {
  %3 = alloca ptr, align 8
  %4 = alloca ptr, align 8
  store ptr %0, ptr %3, align 8, !tbaa !647
  store ptr %1, ptr %4, align 8, !tbaa !647
  %5 = load ptr, ptr %3, align 8
  %6 = load ptr, ptr %4, align 8, !tbaa !647
  call void @_ZNSt15__new_allocatorIcEC2ERKS0_(ptr noundef nonnull align 1 dereferenceable(1) %5, ptr noundef nonnull align 1 dereferenceable(1) %6) #24
  ret void
}

; Function Attrs: mustprogress nounwind optsize uwtable
define linkonce_odr void @_ZNSt16allocator_traitsISaIcEE37select_on_container_copy_constructionERKS0_(ptr dead_on_unwind noalias writable sret(%"class.std::allocator.327") align 1 %0, ptr noundef nonnull align 1 dereferenceable(1) %1) #1 comdat align 2 {
  %3 = alloca ptr, align 8
  %4 = alloca ptr, align 8
  store ptr %0, ptr %3, align 8
  store ptr %1, ptr %4, align 8, !tbaa !647
  %5 = load ptr, ptr %4, align 8, !tbaa !647
  call void @_ZNSaIcEC2ERKS_(ptr noundef nonnull align 1 dereferenceable(1) %0, ptr noundef nonnull align 1 dereferenceable(1) %5) #24
  ret void
}

; Function Attrs: mustprogress nounwind optsize uwtable
define linkonce_odr noundef ptr @_ZNSt19__ptr_traits_ptr_toIPccLb0EE10pointer_toERc(ptr noundef nonnull align 1 dereferenceable(1) %0) #1 comdat align 2 {
  %2 = alloca ptr, align 8
  store ptr %0, ptr %2, align 8, !tbaa !116
  %3 = load ptr, ptr %2, align 8, !tbaa !116
  ret ptr %3
}

; Function Attrs: mustprogress nounwind optsize uwtable
define available_externally noundef i64 @_ZNKSt7__cxx1112basic_stringIcSt11char_traitsIcESaIcEE6lengthEv(ptr noundef nonnull align 8 dereferenceable(32) %0) #1 align 2 {
  %2 = alloca ptr, align 8
  store ptr %0, ptr %2, align 8, !tbaa !649
  %3 = load ptr, ptr %2, align 8
  %4 = getelementptr inbounds nuw %"class.std::__cxx11::basic_string", ptr %3, i32 0, i32 1
  %5 = load i64, ptr %4, align 8, !tbaa !663
  ret i64 %5
}

; Function Attrs: mustprogress nounwind optsize uwtable
define available_externally noundef ptr @_ZNKSt7__cxx1112basic_stringIcSt11char_traitsIcESaIcEE7_M_dataEv(ptr noundef nonnull align 8 dereferenceable(32) %0) #1 align 2 {
  %2 = alloca ptr, align 8
  store ptr %0, ptr %2, align 8, !tbaa !649
  %3 = load ptr, ptr %2, align 8
  %4 = getelementptr inbounds nuw %"class.std::__cxx11::basic_string", ptr %3, i32 0, i32 0
  %5 = getelementptr inbounds nuw %"struct.std::__cxx11::basic_string<char>::_Alloc_hider", ptr %4, i32 0, i32 0
  %6 = load ptr, ptr %5, align 8, !tbaa !659
  ret ptr %6
}

; Function Attrs: mustprogress nounwind optsize uwtable
define linkonce_odr void @_ZNSt15__new_allocatorIcED2Ev(ptr noundef nonnull align 1 dereferenceable(1) %0) unnamed_addr #1 comdat align 2 {
  %2 = alloca ptr, align 8
  store ptr %0, ptr %2, align 8, !tbaa !651
  ret void
}

; Function Attrs: mustprogress nounwind optsize uwtable
define available_externally void @_ZNSt7__cxx1112basic_stringIcSt11char_traitsIcESaIcEE12_Alloc_hiderC2EPcOS3_(ptr noundef nonnull align 8 dereferenceable(8) %0, ptr noundef %1, ptr noundef nonnull align 1 dereferenceable(1) %2) unnamed_addr #1 align 2 {
  %4 = alloca ptr, align 8
  %5 = alloca ptr, align 8
  %6 = alloca ptr, align 8
  store ptr %0, ptr %4, align 8, !tbaa !653
  store ptr %1, ptr %5, align 8, !tbaa !116
  store ptr %2, ptr %6, align 8, !tbaa !647
  %7 = load ptr, ptr %4, align 8
  %8 = load ptr, ptr %6, align 8, !tbaa !647
  call void @_ZNSaIcEC2ERKS_(ptr noundef nonnull align 1 dereferenceable(1) %7, ptr noundef nonnull align 1 dereferenceable(1) %8) #24
  %9 = getelementptr inbounds nuw %"struct.std::__cxx11::basic_string<char>::_Alloc_hider", ptr %7, i32 0, i32 0
  %10 = load ptr, ptr %5, align 8, !tbaa !116
  store ptr %10, ptr %9, align 8, !tbaa !655
  ret void
}

; Function Attrs: mustprogress optsize uwtable
define linkonce_odr void @_ZN9__gnu_cxx14__alloc_traitsISaIcEcE17_S_select_on_copyERKS1_(ptr dead_on_unwind noalias writable sret(%"class.std::allocator.327") align 1 %0, ptr noundef nonnull align 1 dereferenceable(1) %1) #3 comdat align 2 {
  %3 = alloca ptr, align 8
  %4 = alloca ptr, align 8
  store ptr %0, ptr %3, align 8
  store ptr %1, ptr %4, align 8, !tbaa !647
  %5 = load ptr, ptr %4, align 8, !tbaa !647
  call void @_ZNSt16allocator_traitsISaIcEE37select_on_container_copy_constructionERKS0_(ptr dead_on_unwind writable sret(%"class.std::allocator.327") align 1 %0, ptr noundef nonnull align 1 dereferenceable(1) %5) #25
  ret void
}

; Function Attrs: mustprogress nounwind optsize uwtable
define available_externally noundef nonnull align 1 dereferenceable(1) ptr @_ZNKSt7__cxx1112basic_stringIcSt11char_traitsIcESaIcEE16_M_get_allocatorEv(ptr noundef nonnull align 8 dereferenceable(32) %0) #1 align 2 {
  %2 = alloca ptr, align 8
  store ptr %0, ptr %2, align 8, !tbaa !649
  %3 = load ptr, ptr %2, align 8
  %4 = getelementptr inbounds nuw %"class.std::__cxx11::basic_string", ptr %3, i32 0, i32 0
  ret ptr %4
}

; Function Attrs: mustprogress nounwind optsize uwtable
define available_externally noundef ptr @_ZNSt7__cxx1112basic_stringIcSt11char_traitsIcESaIcEE13_M_local_dataEv(ptr noundef nonnull align 8 dereferenceable(32) %0) #1 align 2 {
  %2 = alloca ptr, align 8
  store ptr %0, ptr %2, align 8, !tbaa !649
  %3 = load ptr, ptr %2, align 8
  %4 = getelementptr inbounds nuw %"class.std::__cxx11::basic_string", ptr %3, i32 0, i32 2
  %5 = getelementptr inbounds [16 x i8], ptr %4, i64 0, i64 0
  %6 = call noundef ptr @_ZNSt19__ptr_traits_ptr_toIPccLb0EE10pointer_toERc(ptr noundef nonnull align 1 dereferenceable(1) %5) #24
  ret ptr %6
}

; Function Attrs: mustprogress nounwind optsize uwtable
define linkonce_odr hidden void @_ZN6AnimalD2Ev(ptr noundef nonnull align 8 dereferenceable(8) %0) unnamed_addr #1 comdat align 2 {
  %2 = alloca ptr, align 8
  store ptr %0, ptr %2, align 8, !tbaa !644
  ret void
}

; Function Attrs: mustprogress optsize uwtable
define available_externally void @_ZNSt7__cxx1112basic_stringIcSt11char_traitsIcESaIcEEC2ERKS4_(ptr noundef nonnull align 8 dereferenceable(32) %0, ptr noundef nonnull align 8 dereferenceable(32) %1) unnamed_addr #3 align 2 personality ptr @__gxx_personality_v0 {
  %3 = alloca ptr, align 8
  %4 = alloca ptr, align 8
  %5 = alloca %"class.std::allocator.327", align 1
  %6 = alloca ptr, align 8
  %7 = alloca i32, align 4
  store ptr %0, ptr %3, align 8, !tbaa !649
  store ptr %1, ptr %4, align 8, !tbaa !649
  %8 = load ptr, ptr %3, align 8
  %9 = getelementptr inbounds nuw %"class.std::__cxx11::basic_string", ptr %8, i32 0, i32 0
  %10 = call noundef ptr @_ZNSt7__cxx1112basic_stringIcSt11char_traitsIcESaIcEE13_M_local_dataEv(ptr noundef nonnull align 8 dereferenceable(32) %8) #25
  call void @llvm.lifetime.start.p0(i64 1, ptr %5) #2
  %11 = load ptr, ptr %4, align 8, !tbaa !649
  %12 = call noundef nonnull align 1 dereferenceable(1) ptr @_ZNKSt7__cxx1112basic_stringIcSt11char_traitsIcESaIcEE16_M_get_allocatorEv(ptr noundef nonnull align 8 dereferenceable(32) %11) #25
  call void @_ZN9__gnu_cxx14__alloc_traitsISaIcEcE17_S_select_on_copyERKS1_(ptr dead_on_unwind writable sret(%"class.std::allocator.327") align 1 %5, ptr noundef nonnull align 1 dereferenceable(1) %12) #25
  invoke void @_ZNSt7__cxx1112basic_stringIcSt11char_traitsIcESaIcEE12_Alloc_hiderC2EPcOS3_(ptr noundef nonnull align 8 dereferenceable(8) %9, ptr noundef %10, ptr noundef nonnull align 1 dereferenceable(1) %5) #25
          to label %13 unwind label %22

13:                                               ; preds = %2
  call void @_ZNSt15__new_allocatorIcED2Ev(ptr noundef nonnull align 1 dereferenceable(1) %5) #24
  call void @llvm.lifetime.end.p0(i64 1, ptr %5) #2
  %14 = load ptr, ptr %4, align 8, !tbaa !649
  %15 = call noundef ptr @_ZNKSt7__cxx1112basic_stringIcSt11char_traitsIcESaIcEE7_M_dataEv(ptr noundef nonnull align 8 dereferenceable(32) %14) #25
  %16 = load ptr, ptr %4, align 8, !tbaa !649
  %17 = call noundef ptr @_ZNKSt7__cxx1112basic_stringIcSt11char_traitsIcESaIcEE7_M_dataEv(ptr noundef nonnull align 8 dereferenceable(32) %16) #25
  %18 = load ptr, ptr %4, align 8, !tbaa !649
  %19 = call noundef i64 @_ZNKSt7__cxx1112basic_stringIcSt11char_traitsIcESaIcEE6lengthEv(ptr noundef nonnull align 8 dereferenceable(32) %18) #24
  %20 = getelementptr inbounds nuw i8, ptr %17, i64 %19
  invoke void @_ZNSt7__cxx1112basic_stringIcSt11char_traitsIcESaIcEE12_M_constructIPcEEvT_S7_St20forward_iterator_tag(ptr noundef nonnull align 8 dereferenceable(32) %8, ptr noundef %15, ptr noundef %20) #25
          to label %21 unwind label %26

21:                                               ; preds = %13
  ret void

22:                                               ; preds = %2
  %23 = landingpad { ptr, i32 }
          cleanup
  %24 = extractvalue { ptr, i32 } %23, 0
  store ptr %24, ptr %6, align 8
  %25 = extractvalue { ptr, i32 } %23, 1
  store i32 %25, ptr %7, align 4
  call void @_ZNSt15__new_allocatorIcED2Ev(ptr noundef nonnull align 1 dereferenceable(1) %5) #24
  call void @llvm.lifetime.end.p0(i64 1, ptr %5) #2
  br label %30

26:                                               ; preds = %13
  %27 = landingpad { ptr, i32 }
          cleanup
  %28 = extractvalue { ptr, i32 } %27, 0
  store ptr %28, ptr %6, align 8
  %29 = extractvalue { ptr, i32 } %27, 1
  store i32 %29, ptr %7, align 4
  call void @_ZNSt15__new_allocatorIcED2Ev(ptr noundef nonnull align 8 dereferenceable(8) %9) #24
  br label %30

30:                                               ; preds = %26, %22
  %31 = load ptr, ptr %6, align 8
  %32 = load i32, ptr %7, align 4
  %33 = insertvalue { ptr, i32 } poison, ptr %31, 0
  %34 = insertvalue { ptr, i32 } %33, i32 %32, 1
  resume { ptr, i32 } %34
}

; Function Attrs: inlinehint mustprogress nounwind optsize uwtable
define linkonce_odr hidden void @_ZN6AnimalC2ERKS_(ptr noundef nonnull align 8 dereferenceable(8) %0, ptr noundef nonnull align 8 dereferenceable(8) %1) unnamed_addr #12 comdat align 2 {
  %3 = alloca ptr, align 8
  %4 = alloca ptr, align 8
  store ptr %0, ptr %3, align 8, !tbaa !644
  store ptr %1, ptr %4, align 8, !tbaa !644
  %5 = load ptr, ptr %3, align 8
  store ptr getelementptr inbounds inrange(-16, 40) ({ [7 x ptr] }, ptr @_ZTV6Animal, i32 0, i32 0, i32 2), ptr %5, align 8, !tbaa !38
  ret void
}

; Function Attrs: inlinehint mustprogress optsize uwtable
define internal void @_ZZL30nanobind_init_test_classes_extRN8nanobind7module_EEN3CatC2ERKS2_(ptr noundef nonnull align 8 dereferenceable(40) %0, ptr noundef nonnull align 8 dereferenceable(40) %1) unnamed_addr #14 align 2 personality ptr @__gxx_personality_v0 {
  %3 = alloca ptr, align 8
  %4 = alloca ptr, align 8
  %5 = alloca ptr, align 8
  %6 = alloca i32, align 4
  store ptr %0, ptr %3, align 8, !tbaa !728
  store ptr %1, ptr %4, align 8, !tbaa !728
  %7 = load ptr, ptr %3, align 8
  %8 = load ptr, ptr %4, align 8, !tbaa !728
  call void @_ZN6AnimalC2ERKS_(ptr noundef nonnull align 8 dereferenceable(8) %7, ptr noundef nonnull align 8 dereferenceable(8) %8) #24
  store ptr getelementptr inbounds inrange(-16, 40) ({ [7 x ptr] }, ptr @_ZTVZL30nanobind_init_test_classes_extRN8nanobind7module_EE3Cat, i32 0, i32 0, i32 2), ptr %7, align 8, !tbaa !38
  %9 = getelementptr inbounds nuw %struct.Cat, ptr %7, i32 0, i32 1
  %10 = load ptr, ptr %4, align 8, !tbaa !728
  %11 = getelementptr inbounds nuw %struct.Cat, ptr %10, i32 0, i32 1
  invoke void @_ZNSt7__cxx1112basic_stringIcSt11char_traitsIcESaIcEEC2ERKS4_(ptr noundef nonnull align 8 dereferenceable(32) %9, ptr noundef nonnull align 8 dereferenceable(32) %11) #25
          to label %12 unwind label %13

12:                                               ; preds = %2
  ret void

13:                                               ; preds = %2
  %14 = landingpad { ptr, i32 }
          cleanup
  %15 = extractvalue { ptr, i32 } %14, 0
  store ptr %15, ptr %5, align 8
  %16 = extractvalue { ptr, i32 } %14, 1
  store i32 %16, ptr %6, align 4
  call void @_ZN6AnimalD2Ev(ptr noundef nonnull align 8 dereferenceable(8) %7) #24
  br label %17

17:                                               ; preds = %13
  %18 = load ptr, ptr %5, align 8
  %19 = load i32, ptr %6, align 4
  %20 = insertvalue { ptr, i32 } poison, ptr %18, 0
  %21 = insertvalue { ptr, i32 } %20, i32 %19, 1
  resume { ptr, i32 } %21
}

; Function Attrs: mustprogress optsize uwtable
define internal void @_ZN8nanobind6detail9wrap_copyIZL30nanobind_init_test_classes_extRNS_7module_EE3CatEEvPvPKv(ptr noundef %0, ptr noundef %1) #3 {
  %3 = alloca ptr, align 8
  %4 = alloca ptr, align 8
  store ptr %0, ptr %3, align 8, !tbaa !23
  store ptr %1, ptr %4, align 8, !tbaa !23
  %5 = load ptr, ptr %3, align 8, !tbaa !23
  %6 = load ptr, ptr %4, align 8, !tbaa !23
  call void @_ZZL30nanobind_init_test_classes_extRN8nanobind7module_EEN3CatC2ERKS2_(ptr noundef nonnull align 8 dereferenceable(40) %5, ptr noundef nonnull align 8 dereferenceable(40) %6) #25
  ret void
}