; Function Attrs: mustprogress optsize uwtable
define internal void @_ZN8nanobind6detail9wrap_copyIZL30nanobind_init_test_classes_extRNS_7module_EE3CatEEvPvPKv(ptr noundef initializes((0, 8)) %0, ptr noundef readonly captures(none) %1) #2 personality ptr @__gxx_personality_v0 {
  store ptr getelementptr inbounds nuw inrange(-16, 40) (i8, ptr @_ZTVZL30nanobind_init_test_classes_extRN8nanobind7module_EE3Cat, i64 16), ptr %0, align 8, !tbaa !24
  %3 = getelementptr inbounds nuw i8, ptr %0, i64 8
  %4 = getelementptr inbounds nuw i8, ptr %1, i64 8
  %5 = getelementptr inbounds nuw i8, ptr %0, i64 24
  store ptr %5, ptr %3, align 8, !tbaa !277
  %6 = load ptr, ptr %4, align 8, !tbaa !291
  %7 = getelementptr inbounds nuw i8, ptr %1, i64 16
  %8 = load i64, ptr %7, align 8, !tbaa !282
  %9 = getelementptr inbounds nuw i8, ptr %6, i64 %8
  tail call void @_ZNSt7__cxx1112basic_stringIcSt11char_traitsIcESaIcEE12_M_constructIPcEEvT_S7_St20forward_iterator_tag(ptr noundef nonnull align 8 dereferenceable(32) %3, ptr noundef %6, ptr noundef %9) #38
  ret void
}